; Function Attrs: mustprogress nofree norecurse nosync nounwind willreturn memory(none) uwtable
define noundef range(i32 0, 2) i32 @_Z13VulnerDefSideii(i32 noundef %0, i32 noundef %1) local_unnamed_addr #7 {
  switch i32 %1, label %4 [
    i32 0, label %9
    i32 1, label %3
  ]

3:                                                ; preds = %2
  br label %9

4:                                                ; preds = %2
  %.not = icmp eq i32 %0, 0
  br i1 %.not, label %7, label %5

5:                                                ; preds = %4
  %6 = icmp ne i32 %1, 2
  br label %9

7:                                                ; preds = %4
  %8 = icmp ne i32 %1, 3
  br label %9

9:                                                ; preds = %7, %5, %2, %3
  %.0.shrunk = phi i1 [ true, %3 ], [ false, %2 ], [ %6, %5 ], [ %8, %7 ]
  %.0 = zext i1 %.0.shrunk to i32
  ret i32 %.0
}